; Function Attrs: mustprogress uwtable
define hidden noundef nonnull align 8 dereferenceable(8) ptr @_ZN2lp10lar_solver21print_term_as_indicesERKNS_8lar_termERSo(ptr noundef nonnull align 8 dereferenceable(28) %0, ptr noundef nonnull returned align 8 dereferenceable(8) %1) local_unnamed_addr #5 align 2 personality ptr @__gxx_personality_v0 {
  %3 = alloca %"class.std::function.197", align 8
  %4 = alloca %class.vector.6, align 8
  call void @llvm.lifetime.start.p0(i64 8, ptr nonnull %4) #30
  call void @_ZNK2lp8lar_term16coeffs_as_vectorEv(ptr dead_on_unwind nonnull writable sret(%class.vector.6) align 8 %4, ptr noundef nonnull align 8 dereferenceable(28) %0)
  call void @llvm.lifetime.start.p0(i64 32, ptr nonnull %3)
  %5 = getelementptr inbounds nuw i8, ptr %3, i64 16
  %6 = getelementptr inbounds nuw i8, ptr %3, i64 24
  call void @llvm.memset.p0.i64(ptr noundef nonnull align 8 dereferenceable(32) %3, i8 0, i64 16, i1 false)
  store ptr @_ZNSt17_Function_handlerIFNSt7__cxx1112basic_stringIcSt11char_traitsIcESaIcEEEjEZN2lp47print_linear_combination_of_column_indices_onlyI8rationalEERSoRK6vectorISt4pairIT_jELb1EjESA_EUljE_E9_M_invokeERKSt9_Any_dataOj, ptr %6, align 8, !tbaa !635
  store ptr @_ZNSt17_Function_handlerIFNSt7__cxx1112basic_stringIcSt11char_traitsIcESaIcEEEjEZN2lp47print_linear_combination_of_column_indices_onlyI8rationalEERSoRK6vectorISt4pairIT_jELb1EjESA_EUljE_E10_M_managerERSt9_Any_dataRKSK_St18_Manager_operation, ptr %5, align 8, !tbaa !283
  %7 = invoke noundef nonnull align 8 dereferenceable(8) ptr @_ZN2lp35print_linear_combination_customizedI8rationalEERSoRK6vectorISt4pairIT_jELb1EjESt8functionIFNSt7__cxx1112basic_stringIcSt11char_traitsIcESaIcEEEjEES2_(ptr noundef nonnull align 8 dereferenceable(8) %4, ptr noundef nonnull %3, ptr noundef nonnull align 8 dereferenceable(8) %1)
          to label %8 unwind label %15

8:                                                ; preds = %2
  %9 = load ptr, ptr %5, align 8, !tbaa !283
  %.not.i.i = icmp eq ptr %9, null
  br i1 %.not.i.i, label %23, label %10

10:                                               ; preds = %8
  %11 = invoke noundef zeroext i1 %9(ptr noundef nonnull align 8 dereferenceable(32) %3, ptr noundef nonnull align 8 dereferenceable(32) %3, i32 noundef 3)
          to label %23 unwind label %12

12:                                               ; preds = %10
  %13 = landingpad { ptr, i32 }
          catch ptr null
  %14 = extractvalue { ptr, i32 } %13, 0
  call void @__clang_call_terminate(ptr %14) #31
  unreachable

15:                                               ; preds = %2
  %16 = landingpad { ptr, i32 }
          cleanup
  %17 = load ptr, ptr %5, align 8, !tbaa !283
  %.not.i3.i = icmp eq ptr %17, null
  br i1 %.not.i3.i, label %.body, label %18

18:                                               ; preds = %15
  %19 = invoke noundef zeroext i1 %17(ptr noundef nonnull align 8 dereferenceable(32) %3, ptr noundef nonnull align 8 dereferenceable(32) %3, i32 noundef 3)
          to label %.body unwind label %20

20:                                               ; preds = %18
  %21 = landingpad { ptr, i32 }
          catch ptr null
  %22 = extractvalue { ptr, i32 } %21, 0
  call void @__clang_call_terminate(ptr %22) #31
  unreachable

23:                                               ; preds = %10, %8
  call void @llvm.lifetime.end.p0(i64 32, ptr nonnull %3)
  %24 = load ptr, ptr %4, align 8, !tbaa !278
  %.not.i.i4 = icmp eq ptr %24, null
  br i1 %.not.i.i4, label %_ZN6vectorISt4pairI8rationaljELb1EjED2Ev.exit, label %_ZNK6vectorISt4pairI8rationaljELb1EjE4sizeEv.exit.i.i.i

_ZNK6vectorISt4pairI8rationaljELb1EjE4sizeEv.exit.i.i.i: ; preds = %23
  %25 = getelementptr inbounds i8, ptr %24, i64 -4
  %26 = load i32, ptr %25, align 4, !tbaa !261
  %.not6.i.i.i.i.i.i = icmp eq i32 %26, 0
  br i1 %.not6.i.i.i.i.i.i, label %_ZN6vectorISt4pairI8rationaljELb1EjE16destroy_elementsEv.exit.i.i, label %.lr.ph.i.i.i.i.i.i

.lr.ph.i.i.i.i.i.i:                               ; preds = %_ZNK6vectorISt4pairI8rationaljELb1EjE4sizeEv.exit.i.i.i, %_ZSt8_DestroyISt4pairI8rationaljEEvPT_.exit.i.i.i.i.i.i
  %.08.i.i.i.i.i.i = phi i32 [ %33, %_ZSt8_DestroyISt4pairI8rationaljEEvPT_.exit.i.i.i.i.i.i ], [ %26, %_ZNK6vectorISt4pairI8rationaljELb1EjE4sizeEv.exit.i.i.i ]
  %.047.i.i.i.i.i.i = phi ptr [ %32, %_ZSt8_DestroyISt4pairI8rationaljEEvPT_.exit.i.i.i.i.i.i ], [ %24, %_ZNK6vectorISt4pairI8rationaljELb1EjE4sizeEv.exit.i.i.i ]
  %27 = load ptr, ptr @_ZN8rational13g_mpq_managerE, align 8, !tbaa !248
  invoke void @_ZN11mpz_managerILb1EE3delEPS0_R3mpz(ptr noundef %27, ptr noundef nonnull align 8 dereferenceable(36) %.047.i.i.i.i.i.i)
          to label %.noexc.i.i.i.i.i.i.i.i.i.i unwind label %29

.noexc.i.i.i.i.i.i.i.i.i.i:                       ; preds = %.lr.ph.i.i.i.i.i.i
  %28 = getelementptr inbounds nuw i8, ptr %.047.i.i.i.i.i.i, i64 16
  invoke void @_ZN11mpz_managerILb1EE3delEPS0_R3mpz(ptr noundef %27, ptr noundef nonnull align 8 dereferenceable(16) %28)
          to label %_ZSt8_DestroyISt4pairI8rationaljEEvPT_.exit.i.i.i.i.i.i unwind label %29

29:                                               ; preds = %.noexc.i.i.i.i.i.i.i.i.i.i, %.lr.ph.i.i.i.i.i.i
  %30 = landingpad { ptr, i32 }
          catch ptr null
  %31 = extractvalue { ptr, i32 } %30, 0
  call void @__clang_call_terminate(ptr %31) #31
  unreachable

_ZSt8_DestroyISt4pairI8rationaljEEvPT_.exit.i.i.i.i.i.i: ; preds = %.noexc.i.i.i.i.i.i.i.i.i.i
  %32 = getelementptr inbounds nuw i8, ptr %.047.i.i.i.i.i.i, i64 40
  %33 = add i32 %.08.i.i.i.i.i.i, -1
  %.not.i.i.i.i.i.i = icmp eq i32 %33, 0
  br i1 %.not.i.i.i.i.i.i, label %_ZN6vectorISt4pairI8rationaljELb1EjE16destroy_elementsEv.exit.loopexit.i.i, label %.lr.ph.i.i.i.i.i.i, !llvm.loop !279

_ZN6vectorISt4pairI8rationaljELb1EjE16destroy_elementsEv.exit.loopexit.i.i: ; preds = %_ZSt8_DestroyISt4pairI8rationaljEEvPT_.exit.i.i.i.i.i.i
  %.pre.i.i = load ptr, ptr %4, align 8, !tbaa !278
  br label %_ZN6vectorISt4pairI8rationaljELb1EjE16destroy_elementsEv.exit.i.i

_ZN6vectorISt4pairI8rationaljELb1EjE16destroy_elementsEv.exit.i.i: ; preds = %_ZN6vectorISt4pairI8rationaljELb1EjE16destroy_elementsEv.exit.loopexit.i.i, %_ZNK6vectorISt4pairI8rationaljELb1EjE4sizeEv.exit.i.i.i
  %34 = phi ptr [ %.pre.i.i, %_ZN6vectorISt4pairI8rationaljELb1EjE16destroy_elementsEv.exit.loopexit.i.i ], [ %24, %_ZNK6vectorISt4pairI8rationaljELb1EjE4sizeEv.exit.i.i.i ]
  %35 = getelementptr inbounds i8, ptr %34, i64 -8
  invoke void @_ZN6memory10deallocateEPv(ptr noundef nonnull %35)
          to label %_ZN6vectorISt4pairI8rationaljELb1EjED2Ev.exit unwind label %36

36:                                               ; preds = %_ZN6vectorISt4pairI8rationaljELb1EjE16destroy_elementsEv.exit.i.i
  %37 = landingpad { ptr, i32 }
          catch ptr null
  %38 = extractvalue { ptr, i32 } %37, 0
  call void @__clang_call_terminate(ptr %38) #31
  unreachable

_ZN6vectorISt4pairI8rationaljELb1EjED2Ev.exit:    ; preds = %23, %_ZN6vectorISt4pairI8rationaljELb1EjE16destroy_elementsEv.exit.i.i
  call void @llvm.lifetime.end.p0(i64 8, ptr nonnull %4) #30
  ret ptr %1

.body:                                            ; preds = %15, %18
  call void @_ZN6vectorISt4pairI8rationaljELb1EjED2Ev(ptr noundef nonnull align 8 dereferenceable(8) %4) #30
  call void @llvm.lifetime.end.p0(i64 8, ptr nonnull %4) #30
  resume { ptr, i32 } %16
}